ccopy_reg
_reconstructor
p1
(cneat.chromosome
FFChromosome
p2
c__builtin__
object
p3
NtRp4
(dp5
S'species_id'
p6
I1
sS'_connection_genes'
p7
(dp8
(I1
I11
tp9
g1
(cneat.genome
ConnectionGene
p10
g3
NtRp11
(dp12
S'_ConnectionGene__weight'
p13
F1.3190761564886093
sS'_ConnectionGene__in'
p14
I1
sS'_ConnectionGene__enabled'
p15
I01
sS'_ConnectionGene__out'
p16
I11
sS'_ConnectionGene__innov_number'
p17
I1
sbs(I10
I11
tp18
g1
(g10
g3
NtRp19
(dp20
g13
F1.4713123166923949
sg14
I10
sg15
I01
sg16
I11
sg17
I10
sbs(I1
I12
tp21
g1
(g10
g3
NtRp22
(dp23
g13
F-4.9611863861011471
sg14
I1
sg15
I01
sg16
I12
sg17
I11
sbs(I5
I11
tp24
g1
(g10
g3
NtRp25
(dp26
g13
F-2.5734932428319506
sg14
I5
sg15
I01
sg16
I11
sg17
I5
sbs(I6
I11
tp27
g1
(g10
g3
NtRp28
(dp29
g13
F0.85197294919856148
sg14
I6
sg15
I01
sg16
I11
sg17
I6
sbs(I8
I11
tp30
g1
(g10
g3
NtRp31
(dp32
g13
F2.808222837523398
sg14
I8
sg15
I01
sg16
I11
sg17
I8
sbs(I8
I12
tp33
g1
(g10
g3
NtRp34
(dp35
g13
F2.0280988247157108
sg14
I8
sg15
I01
sg16
I12
sg17
I18
sbs(I2
I11
tp36
g1
(g10
g3
NtRp37
(dp38
g13
F-1.454453932534495
sg14
I2
sg15
I01
sg16
I11
sg17
I2
sbs(I3
I11
tp39
g1
(g10
g3
NtRp40
(dp41
g13
F-0.14139214444617976
sg14
I3
sg15
I01
sg16
I11
sg17
I3
sbs(I10
I12
tp42
g1
(g10
g3
NtRp43
(dp44
g13
F-0.18851489967073731
sg14
I10
sg15
I01
sg16
I12
sg17
I20
sbs(I4
I11
tp45
g1
(g10
g3
NtRp46
(dp47
g13
F-8.4270962449406284
sg14
I4
sg15
I01
sg16
I11
sg17
I4
sbs(I7
I12
tp48
g1
(g10
g3
NtRp49
(dp50
g13
F3.9001455894994219
sg14
I7
sg15
I01
sg16
I12
sg17
I17
sbs(I9
I11
tp51
g1
(g10
g3
NtRp52
(dp53
g13
F1.1834605093425314
sg14
I9
sg15
I01
sg16
I11
sg17
I9
sbs(I2
I12
tp54
g1
(g10
g3
NtRp55
(dp56
g13
F-0.63264925123259075
sg14
I2
sg15
I01
sg16
I12
sg17
I12
sbs(I6
I12
tp57
g1
(g10
g3
NtRp58
(dp59
g13
F1.2624181386772624
sg14
I6
sg15
I01
sg16
I12
sg17
I16
sbs(I7
I11
tp60
g1
(g10
g3
NtRp61
(dp62
g13
F0.98365441522450625
sg14
I7
sg15
I01
sg16
I11
sg17
I7
sbs(I3
I12
tp63
g1
(g10
g3
NtRp64
(dp65
g13
F1.8990747741297886
sg14
I3
sg15
I01
sg16
I12
sg17
I13
sbs(I4
I12
tp66
g1
(g10
g3
NtRp67
(dp68
g13
F-1.0428312021897188
sg14
I4
sg15
I01
sg16
I12
sg17
I14
sbs(I5
I12
tp69
g1
(g10
g3
NtRp70
(dp71
g13
F-0.19762346293888222
sg14
I5
sg15
I01
sg16
I12
sg17
I15
sbs(I9
I12
tp72
g1
(g10
g3
NtRp73
(dp74
g13
F0.69515803299128931
sg14
I9
sg15
I01
sg16
I12
sg17
I19
sbssS'_input_nodes'
p75
I10
sS'_output_nodes'
p76
I2
sS'_node_gene_type'
p77
cneat.genome
NodeGene
p78
sS'_FFChromosome__node_order'
p79
(lp80
sS'_conn_gene_type'
p81
g10
sS'fitness'
p82
F0.67000000000000004
sS'parent2_id'
p83
I96
sS'_id'
p84
I115
sS'parent1_id'
p85
I96
sS'_node_genes'
p86
(lp87
g1
(g78
g3
NtRp88
(dp89
S'_bias'
p90
I0
sS'_type'
p91
S'INPUT'
p92
sg84
I1
sS'_response'
p93
F4.9242730000000003
sS'_activation_type'
p94
Nsbag1
(g78
g3
NtRp95
(dp96
g90
I0
sg91
g92
sg84
I2
sg93
F4.9242730000000003
sg94
Nsbag1
(g78
g3
NtRp97
(dp98
g90
I0
sg91
g92
sg84
I3
sg93
F4.9242730000000003
sg94
Nsbag1
(g78
g3
NtRp99
(dp100
g90
I0
sg91
g92
sg84
I4
sg93
F4.9242730000000003
sg94
Nsbag1
(g78
g3
NtRp101
(dp102
g90
I0
sg91
g92
sg84
I5
sg93
F4.9242730000000003
sg94
Nsbag1
(g78
g3
NtRp103
(dp104
g90
I0
sg91
g92
sg84
I6
sg93
F4.9242730000000003
sg94
Nsbag1
(g78
g3
NtRp105
(dp106
g90
I0
sg91
g92
sg84
I7
sg93
F4.9242730000000003
sg94
Nsbag1
(g78
g3
NtRp107
(dp108
g90
I0
sg91
g92
sg84
I8
sg93
F4.9242730000000003
sg94
Nsbag1
(g78
g3
NtRp109
(dp110
g90
I0
sg91
g92
sg84
I9
sg93
F4.9242730000000003
sg94
Nsbag1
(g78
g3
NtRp111
(dp112
g90
I0
sg91
g92
sg84
I10
sg93
F4.9242730000000003
sg94
Nsbag1
(g78
g3
NtRp113
(dp114
g90
F-0.21185233107564824
sg91
S'OUTPUT'
p115
sg84
I11
sg93
F4.8498204651367249
sg94
S'exp'
p116
sbag1
(g78
g3
NtRp117
(dp118
g90
I0
sg91
g115
sg84
I12
sg93
F4.9242730000000003
sg94
g116
sbasb.